; Function Attrs: nounwind uwtable
define internal zeroext i1 @FindV4L2CameraByPathCallback(ptr noundef readonly captures(none) %0, ptr noundef %1) #1 {
  %3 = getelementptr inbounds nuw i8, ptr %0, i64 112
  %4 = load ptr, ptr %3, align 8
  %5 = getelementptr inbounds nuw i8, ptr %4, i64 8
  %6 = load ptr, ptr %5, align 8
  %7 = tail call i32 @SDL_strcmp_REAL(ptr noundef %6, ptr noundef %1) #11
  %8 = icmp eq i32 %7, 0
  ret i1 %8
}